target datalayout = "e-m:e-p270:32:32-p271:32:32-p272:64:64-i64:64-i128:128-f80:128-n8:16:32:64-S128"
target triple = "x86_64-pc-linux-gnu"

%struct.z_stream_s = type { ptr, i32, i64, ptr, i32, i64, ptr, ptr, ptr, ptr, ptr, i32, i64, i64 }
%struct.internal_state = type { ptr, i32, ptr, i64, ptr, i32, i32, ptr, i32, i8, i32, i32, i32, i32, ptr, i64, ptr, ptr, i32, i32, i32, i32, i32, i64, i32, i32, i32, i32, i32, i32, i32, i32, i32, i32, i32, i32, i32, [573 x %struct.ct_data_s], [61 x %struct.ct_data_s], [39 x %struct.ct_data_s], %struct.tree_desc_s, %struct.tree_desc_s, %struct.tree_desc_s, [16 x i16], [573 x i32], i32, i32, [573 x i8], ptr, i32, i32, ptr, i64, i64, i32, i32, i16, i32, i64 }
%struct.ct_data_s = type { %union.anon, %union.anon.0 }
%union.anon = type { i16 }
%union.anon.0 = type { i16 }
%struct.tree_desc_s = type { ptr, i32, ptr }

; Function Attrs: nounwind uwtable
define i32 @deflateResetKeep(ptr noundef %0) #0 {
  %2 = alloca i32, align 4
  %3 = alloca ptr, align 8
  %4 = alloca ptr, align 8
  %5 = alloca i32, align 4
  store ptr %0, ptr %3, align 8, !tbaa !3
  call void @llvm.lifetime.start.p0(i64 8, ptr %4) #5
  %6 = load ptr, ptr %3, align 8, !tbaa !3
  %7 = icmp eq ptr %6, null
  br i1 %7, label %23, label %8

8:                                                ; preds = %1
  %9 = load ptr, ptr %3, align 8, !tbaa !3
  %10 = getelementptr inbounds nuw %struct.z_stream_s, ptr %9, i32 0, i32 7
  %11 = load ptr, ptr %10, align 8, !tbaa !21
  %12 = icmp eq ptr %11, null
  br i1 %12, label %23, label %13

13:                                               ; preds = %8
  %14 = load ptr, ptr %3, align 8, !tbaa !3
  %15 = getelementptr inbounds nuw %struct.z_stream_s, ptr %14, i32 0, i32 8
  %16 = load ptr, ptr %15, align 8, !tbaa !17
  %17 = icmp eq ptr %16, null
  br i1 %17, label %23, label %18

18:                                               ; preds = %13
  %19 = load ptr, ptr %3, align 8, !tbaa !3
  %20 = getelementptr inbounds nuw %struct.z_stream_s, ptr %19, i32 0, i32 9
  %21 = load ptr, ptr %20, align 8, !tbaa !19
  %22 = icmp eq ptr %21, null
  br i1 %22, label %23, label %24

23:                                               ; preds = %18, %13, %8, %1
  store i32 -2, ptr %2, align 4
  store i32 1, ptr %5, align 4
  br label %77

24:                                               ; preds = %18
  %25 = load ptr, ptr %3, align 8, !tbaa !3
  %26 = getelementptr inbounds nuw %struct.z_stream_s, ptr %25, i32 0, i32 5
  store i64 0, ptr %26, align 8, !tbaa !75
  %27 = load ptr, ptr %3, align 8, !tbaa !3
  %28 = getelementptr inbounds nuw %struct.z_stream_s, ptr %27, i32 0, i32 2
  store i64 0, ptr %28, align 8, !tbaa !76
  %29 = load ptr, ptr %3, align 8, !tbaa !3
  %30 = getelementptr inbounds nuw %struct.z_stream_s, ptr %29, i32 0, i32 6
  store ptr null, ptr %30, align 8, !tbaa !13
  %31 = load ptr, ptr %3, align 8, !tbaa !3
  %32 = getelementptr inbounds nuw %struct.z_stream_s, ptr %31, i32 0, i32 11
  store i32 2, ptr %32, align 8, !tbaa !77
  %33 = load ptr, ptr %3, align 8, !tbaa !3
  %34 = getelementptr inbounds nuw %struct.z_stream_s, ptr %33, i32 0, i32 7
  %35 = load ptr, ptr %34, align 8, !tbaa !21
  store ptr %35, ptr %4, align 8, !tbaa !20
  %36 = load ptr, ptr %4, align 8, !tbaa !20
  %37 = getelementptr inbounds nuw %struct.internal_state, ptr %36, i32 0, i32 5
  store i32 0, ptr %37, align 8, !tbaa !78
  %38 = load ptr, ptr %4, align 8, !tbaa !20
  %39 = getelementptr inbounds nuw %struct.internal_state, ptr %38, i32 0, i32 2
  %40 = load ptr, ptr %39, align 8, !tbaa !45
  %41 = load ptr, ptr %4, align 8, !tbaa !20
  %42 = getelementptr inbounds nuw %struct.internal_state, ptr %41, i32 0, i32 4
  store ptr %40, ptr %42, align 8, !tbaa !79
  %43 = load ptr, ptr %4, align 8, !tbaa !20
  %44 = getelementptr inbounds nuw %struct.internal_state, ptr %43, i32 0, i32 6
  %45 = load i32, ptr %44, align 4, !tbaa !30
  %46 = icmp slt i32 %45, 0
  br i1 %46, label %47, label %54

47:                                               ; preds = %24
  %48 = load ptr, ptr %4, align 8, !tbaa !20
  %49 = getelementptr inbounds nuw %struct.internal_state, ptr %48, i32 0, i32 6
  %50 = load i32, ptr %49, align 4, !tbaa !30
  %51 = sub nsw i32 0, %50
  %52 = load ptr, ptr %4, align 8, !tbaa !20
  %53 = getelementptr inbounds nuw %struct.internal_state, ptr %52, i32 0, i32 6
  store i32 %51, ptr %53, align 4, !tbaa !30
  br label %54

54:                                               ; preds = %47, %24
  %55 = load ptr, ptr %4, align 8, !tbaa !20
  %56 = getelementptr inbounds nuw %struct.internal_state, ptr %55, i32 0, i32 6
  %57 = load i32, ptr %56, align 4, !tbaa !30
  %58 = icmp ne i32 %57, 0
  %59 = select i1 %58, i32 42, i32 113
  %60 = load ptr, ptr %4, align 8, !tbaa !20
  %61 = getelementptr inbounds nuw %struct.internal_state, ptr %60, i32 0, i32 1
  store i32 %59, ptr %61, align 8, !tbaa !47
  %62 = load ptr, ptr %4, align 8, !tbaa !20
  %63 = getelementptr inbounds nuw %struct.internal_state, ptr %62, i32 0, i32 6
  %64 = load i32, ptr %63, align 4, !tbaa !30
  %65 = icmp eq i32 %64, 2
  br i1 %65, label %66, label %68

66:                                               ; preds = %54
  %67 = call i64 @crc32(i64 noundef 0, ptr noundef null, i32 noundef 0)
  br label %70

68:                                               ; preds = %54
  %69 = call i64 @adler32(i64 noundef 0, ptr noundef null, i32 noundef 0)
  br label %70

70:                                               ; preds = %68, %66
  %71 = phi i64 [ %67, %66 ], [ %69, %68 ]
  %72 = load ptr, ptr %3, align 8, !tbaa !3
  %73 = getelementptr inbounds nuw %struct.z_stream_s, ptr %72, i32 0, i32 12
  store i64 %71, ptr %73, align 8, !tbaa !54
  %74 = load ptr, ptr %4, align 8, !tbaa !20
  %75 = getelementptr inbounds nuw %struct.internal_state, ptr %74, i32 0, i32 10
  store i32 0, ptr %75, align 8, !tbaa !80
  %76 = load ptr, ptr %4, align 8, !tbaa !20
  call void @_tr_init(ptr noundef %76)
  store i32 0, ptr %2, align 4
  store i32 1, ptr %5, align 4
  br label %77

77:                                               ; preds = %70, %23
  call void @llvm.lifetime.end.p0(i64 8, ptr %4) #5
  %78 = load i32, ptr %2, align 4
  ret i32 %78
}