; Function Attrs: nounwind uwtable
define range(i32 -2, 1) i32 @deflateResetKeep(ptr noundef %0) local_unnamed_addr #0 {
  %2 = icmp eq ptr %0, null
  br i1 %2, label %41, label %3

3:                                                ; preds = %1
  %4 = getelementptr inbounds nuw i8, ptr %0, i64 56
  %5 = load ptr, ptr %4, align 8, !tbaa !16
  %6 = icmp eq ptr %5, null
  br i1 %6, label %41, label %7

7:                                                ; preds = %3
  %8 = getelementptr inbounds nuw i8, ptr %0, i64 64
  %9 = load ptr, ptr %8, align 8, !tbaa !13
  %10 = icmp eq ptr %9, null
  br i1 %10, label %41, label %11

11:                                               ; preds = %7
  %12 = getelementptr inbounds nuw i8, ptr %0, i64 72
  %13 = load ptr, ptr %12, align 8, !tbaa !15
  %14 = icmp eq ptr %13, null
  br i1 %14, label %41, label %15

15:                                               ; preds = %11
  %16 = getelementptr inbounds nuw i8, ptr %0, i64 40
  %17 = getelementptr inbounds nuw i8, ptr %0, i64 16
  store i64 0, ptr %17, align 8, !tbaa !49
  %18 = getelementptr inbounds nuw i8, ptr %0, i64 88
  tail call void @llvm.memset.p0.i64(ptr noundef nonnull align 8 dereferenceable(16) %16, i8 0, i64 16, i1 false)
  store i32 2, ptr %18, align 8, !tbaa !50
  %19 = getelementptr inbounds nuw i8, ptr %5, i64 40
  store i32 0, ptr %19, align 8, !tbaa !51
  %20 = getelementptr inbounds nuw i8, ptr %5, i64 16
  %21 = load ptr, ptr %20, align 8, !tbaa !40
  %22 = getelementptr inbounds nuw i8, ptr %5, i64 32
  store ptr %21, ptr %22, align 8, !tbaa !52
  %23 = getelementptr inbounds nuw i8, ptr %5, i64 44
  %24 = load i32, ptr %23, align 4, !tbaa !26
  %25 = icmp slt i32 %24, 0
  br i1 %25, label %26, label %28

26:                                               ; preds = %15
  %27 = sub nsw i32 0, %24
  store i32 %27, ptr %23, align 4, !tbaa !26
  br label %28

28:                                               ; preds = %26, %15
  %29 = phi i32 [ %27, %26 ], [ %24, %15 ]
  %.not = icmp eq i32 %29, 0
  %30 = select i1 %.not, i32 113, i32 42
  %31 = getelementptr inbounds nuw i8, ptr %5, i64 8
  store i32 %30, ptr %31, align 8, !tbaa !42
  %32 = icmp eq i32 %29, 2
  br i1 %32, label %33, label %35

33:                                               ; preds = %28
  %34 = tail call i64 @crc32(i64 noundef 0, ptr noundef null, i32 noundef 0) #10
  br label %37

35:                                               ; preds = %28
  %36 = tail call i64 @adler32(i64 noundef 0, ptr noundef null, i32 noundef 0) #10
  br label %37

37:                                               ; preds = %35, %33
  %38 = phi i64 [ %34, %33 ], [ %36, %35 ]
  %39 = getelementptr inbounds nuw i8, ptr %0, i64 96
  store i64 %38, ptr %39, align 8, !tbaa !53
  %40 = getelementptr inbounds nuw i8, ptr %5, i64 64
  store i32 0, ptr %40, align 8, !tbaa !54
  tail call void @_tr_init(ptr noundef nonnull %5) #10
  br label %41

41:                                               ; preds = %1, %3, %7, %11, %37
  %.0 = phi i32 [ 0, %37 ], [ -2, %11 ], [ -2, %7 ], [ -2, %3 ], [ -2, %1 ]
  ret i32 %.0
}